; ModuleID = '30/86.c'
source_filename = "30/86.c"
target datalayout = "e-m:e-p270:32:32-p271:32:32-p272:64:64-i64:64-f80:128-n8:16:32:64-S128"
target triple = "x86_64-pc-linux-gnu"

@.str = private unnamed_addr constant [3 x i8] c"%d\00", align 1

; Function Attrs: noinline nounwind uwtable
define dso_local void @main() #0 {
  %1 = alloca i32, align 4
  %2 = alloca i32, align 4
  %3 = alloca i32, align 4
  %4 = alloca i32, align 4
  %5 = alloca i32, align 4
  store i32 0, i32* %3, align 4
  store i32 0, i32* %4, align 4
  %6 = call i32 (i8*, ...) @__isoc99_scanf(i8* getelementptr inbounds ([3 x i8], [3 x i8]* @.str, i64 0, i64 0), i32* %1)
  %7 = load i32, i32* %1, align 4
  %8 = icmp slt i32 %7, 7
  br i1 %8, label %9, label %24

9:                                                ; preds = %0
  store i32 1, i32* %2, align 4
  br label %10

10:                                               ; preds = %20, %9
  %11 = load i32, i32* %2, align 4
  %12 = load i32, i32* %1, align 4
  %13 = icmp sle i32 %11, %12
  br i1 %13, label %14, label %23

14:                                               ; preds = %10
  %15 = load i32, i32* %3, align 4
  %16 = load i32, i32* %2, align 4
  %17 = load i32, i32* %2, align 4
  %18 = mul nsw i32 %16, %17
  %19 = add nsw i32 %15, %18
  store i32 %19, i32* %3, align 4
  br label %20

20:                                               ; preds = %14
  %21 = load i32, i32* %2, align 4
  %22 = add nsw i32 %21, 1
  store i32 %22, i32* %2, align 4
  br label %10

23:                                               ; preds = %10
  br label %24

24:                                               ; preds = %23, %0
  %25 = load i32, i32* %1, align 4
  %26 = icmp sge i32 %25, 7
  br i1 %26, label %27, label %74

27:                                               ; preds = %24
  store i32 7, i32* %2, align 4
  br label %28

28:                                               ; preds = %38, %27
  %29 = load i32, i32* %2, align 4
  %30 = load i32, i32* %1, align 4
  %31 = icmp sle i32 %29, %30
  br i1 %31, label %32, label %41

32:                                               ; preds = %28
  %33 = load i32, i32* %3, align 4
  %34 = load i32, i32* %2, align 4
  %35 = load i32, i32* %2, align 4
  %36 = mul nsw i32 %34, %35
  %37 = add nsw i32 %33, %36
  store i32 %37, i32* %3, align 4
  br label %38

38:                                               ; preds = %32
  %39 = load i32, i32* %2, align 4
  %40 = add nsw i32 %39, 1
  store i32 %40, i32* %2, align 4
  br label %28

41:                                               ; preds = %28
  store i32 7, i32* %2, align 4
  br label %42

42:                                               ; preds = %66, %41
  %43 = load i32, i32* %2, align 4
  %44 = load i32, i32* %1, align 4
  %45 = icmp sle i32 %43, %44
  br i1 %45, label %46, label %69

46:                                               ; preds = %42
  %47 = load i32, i32* %2, align 4
  %48 = sdiv i32 %47, 10
  store i32 %48, i32* %5, align 4
  %49 = load i32, i32* %2, align 4
  %50 = srem i32 %49, 10
  %51 = icmp eq i32 %50, 7
  br i1 %51, label %59, label %52

52:                                               ; preds = %46
  %53 = load i32, i32* %2, align 4
  %54 = srem i32 %53, 7
  %55 = icmp eq i32 %54, 0
  br i1 %55, label %59, label %56

56:                                               ; preds = %52
  %57 = load i32, i32* %5, align 4
  %58 = icmp eq i32 %57, 7
  br i1 %58, label %59, label %65

59:                                               ; preds = %56, %52, %46
  %60 = load i32, i32* %4, align 4
  %61 = load i32, i32* %2, align 4
  %62 = load i32, i32* %2, align 4
  %63 = mul nsw i32 %61, %62
  %64 = add nsw i32 %60, %63
  store i32 %64, i32* %4, align 4
  br label %65

65:                                               ; preds = %59, %56
  br label %66

66:                                               ; preds = %65
  %67 = load i32, i32* %2, align 4
  %68 = add nsw i32 %67, 1
  store i32 %68, i32* %2, align 4
  br label %42

69:                                               ; preds = %42
  %70 = load i32, i32* %3, align 4
  %71 = load i32, i32* %4, align 4
  %72 = sub nsw i32 %70, %71
  %73 = add nsw i32 %72, 91
  store i32 %73, i32* %3, align 4
  br label %74

74:                                               ; preds = %69, %24
  %75 = load i32, i32* %3, align 4
  %76 = call i32 (i8*, ...) @printf(i8* getelementptr inbounds ([3 x i8], [3 x i8]* @.str, i64 0, i64 0), i32 %75)
  ret void
}

declare dso_local i32 @__isoc99_scanf(i8*, ...) #1

declare dso_local i32 @printf(i8*, ...) #1


!llvm.module.flags = !{!0}
!llvm.ident = !{!1}

!0 = !{i32 1, !"wchar_size", i32 4}
!1 = !{!"clang version 10.0.0-4ubuntu1 "}
